ccopy_reg
_reconstructor
p0
(cpandas.core.frame
DataFrame
p1
c__builtin__
object
p2
Ntp3
Rp4
(dp5
S'_metadata'
p6
(lp7
sS'_typ'
p8
S'dataframe'
p9
sS'_data'
p10
g0
(cpandas.core.internals
BlockManager
p11
g2
Ntp12
Rp13
((lp14
cpandas.core.indexes.base
_new_Index
p15
(cpandas.core.indexes.base
Index
p16
(dp17
S'data'
p18
cnumpy.core.multiarray
_reconstruct
p19
(cnumpy
ndarray
p20
(I0
tp21
S'b'
p22
tp23
Rp24
(I1
(I7
tp25
cnumpy
dtype
p26
(S'O8'
p27
I0
I1
tp28
Rp29
(I3
S'|'
p30
NNNI-1
I-1
I63
tp31
bI00
(lp32
S'conversion_factor'
p33
aS'in_mupcl_object'
p34
aS'statistic_name'
p35
aS'statistic_name_sharppy'
p36
aS'is_vector'
p37
aS'max_values_for_normalization'
p38
aS'min_values_for_normalization'
p39
atp40
bsS'name'
p41
Nstp42
Rp43
ag15
(cpandas.core.indexes.range
RangeIndex
p44
(dp45
S'start'
p46
I0
sS'step'
p47
I1
sS'stop'
p48
I98
sg41
Nstp49
Rp50
a(lp51
g19
(g20
(I0
tp52
g22
tp53
Rp54
(I1
(I1
I98
tp55
g26
(S'f8'
p56
I0
I1
tp57
Rp58
(I3
S'<'
p59
NNNI-1
I-1
I0
tp60
bI00
S'\x00\x00\x00\x00\x00\x00\xf0?\x00\x00\x00\x00\x00\x00\xf0?(\xde\x0f2Tv\xe0?\x00\x00\x00\x00\x00\x00\xf0?\x00\x00\x00\x00\x00\x00\xf0?\x00\x00\x00\x00\x00\x00\xf0?\x00\x00\x00\x00\x00\x00\xf0?\x00\x00\x00\x00\x00\x00\xf0?\x00\x00\x00\x00\x00\x00\xf0?\x00\x00\x00\x00\x00\x00\xf0?\x00\x00\x00\x00\x00\x00\xf0?\x00\x00\x00\x00\x00\x00\xf0?\x00\x00\x00\x00\x00\x00\xf0?\x00\x00\x00\x00\x00\x00\xf0?\x00\x00\x00\x00\x00\x00\xf0?\x00\x00\x00\x00\x00\x00\xf0?\x00\x00\x00\x00\x00\x00\xf0?\x00\x00\x00\x00\x00\x00\xf0?\x00\x00\x00\x00\x00\x00\xf0?\x00\x00\x00\x00\x00\x00\xf0?\x00\x00\x00\x00\x00\x00\xf0?\x00\x00\x00\x00\x00\x00\xf0?\x00\x00\x00\x00\x00\x00\xf0?\x00\x00\x00\x00\x00\x00\xf0?\x00\x00\x00\x00\x00\x00\xf0?\x00\x00\x00\x00\x00\x00\xf0?\x00\x00\x00\x00\x00\x00\xf0?\x00\x00\x00\x00\x00\x00\xf0?\x00\x00\x00\x00\x00\x00\xf0?\x00\x00\x00\x00\x00\x00\xf0?\xfc\xa9\xf1\xd2MbP?\xfc\xa9\xf1\xd2MbP?\xfc\xa9\xf1\xd2MbP?\xfc\xa9\xf1\xd2MbP?\x00\x00\x00\x00\x00\x00\xf0?\x00\x00\x00\x00\x00\x00\xf0?\x00\x00\x00\x00\x00\x00\xf0?\x00\x00\x00\x00\x00\x00\xf0?\x00\x00\x00\x00\x00\x00\xf0?\x00\x00\x00\x00\x00\x00\xf0?\x00\x00\x00\x00\x00\x00\xf0?{\x14\xaeG\xe1z\x84?\x00\x00\x00\x00\x00\x00\xf0?\xfc\xa9\xf1\xd2MbP?\x00\x00\x00\x00\x00\x00\xf0?ffffff9@{\x14\xaeG\xe1z\x84?{\x14\xaeG\xe1z\x84?{\x14\xaeG\xe1z\x84?{\x14\xaeG\xe1z\x84?{\x14\xaeG\xe1z\x84?\x00\x00\x00\x00\x00\x00\xf0?\x00\x00\x00\x00\x00\x00\xf0?\x00\x00\x00\x00\x00\x00\xf0?\x00\x00\x00\x00\x00\x00\xf0?\x00\x00\x00\x00\x00\x00\xf0?\x00\x00\x00\x00\x00\x00\xf0?\x00\x00\x00\x00\x00\x00\xf0?(\xde\x0f2Tv\xe0?(\xde\x0f2Tv\xe0?(\xde\x0f2Tv\xe0?(\xde\x0f2Tv\xe0?(\xde\x0f2Tv\xe0?(\xde\x0f2Tv\xe0?(\xde\x0f2Tv\xe0?(\xde\x0f2Tv\xe0?(\xde\x0f2Tv\xe0?(\xde\x0f2Tv\xe0?(\xde\x0f2Tv\xe0?\x00\x00\x00\x00\x00\x00\xf0?\x00\x00\x00\x00\x00\x00\xf0?\x00\x00\x00\x00\x00\x00\xf0?\x00\x00\x00\x00\x00\x00\xf0?\x00\x00\x00\x00\x00\x00\xf0?\x00\x00\x00\x00\x00\x00\xf0?\x00\x00\x00\x00\x00\x00\xf0?\x00\x00\x00\x00\x00\x00\xf0?\x00\x00\x00\x00\x00\x00\xf0?\x00\x00\x00\x00\x00\x00\xf0?\x00\x00\x00\x00\x00\x00\xf0?\x00\x00\x00\x00\x00\x00\xf0?(\xde\x0f2Tv\xe0?(\xde\x0f2Tv\xe0?(\xde\x0f2Tv\xe0?(\xde\x0f2Tv\xe0?(\xde\x0f2Tv\xe0?(\xde\x0f2Tv\xe0?(\xde\x0f2Tv\xe0?(\xde\x0f2Tv\xe0?(\xde\x0f2Tv\xe0?(\xde\x0f2Tv\xe0?(\xde\x0f2Tv\xe0?(\xde\x0f2Tv\xe0?(\xde\x0f2Tv\xe0?(\xde\x0f2Tv\xe0?(\xde\x0f2Tv\xe0?(\xde\x0f2Tv\xe0?(\xde\x0f2Tv\xe0?'
p61
tp62
bag19
(g20
(I0
tp63
g22
tp64
Rp65
(I1
(I2
I98
tp66
g26
(S'b1'
p67
I0
I1
tp68
Rp69
(I3
S'|'
p70
NNNI-1
I-1
I0
tp71
bI00
S'\x01\x01\x01\x01\x01\x01\x01\x01\x01\x01\x00\x00\x00\x00\x00\x00\x00\x00\x00\x00\x00\x00\x00\x01\x00\x01\x01\x01\x01\x00\x00\x00\x00\x00\x00\x01\x01\x01\x01\x01\x01\x00\x00\x00\x00\x00\x00\x00\x00\x00\x00\x00\x00\x00\x00\x00\x00\x00\x00\x00\x00\x00\x00\x00\x00\x00\x00\x00\x00\x00\x00\x00\x00\x00\x00\x00\x00\x00\x00\x00\x00\x00\x00\x00\x00\x00\x00\x00\x00\x00\x00\x00\x00\x00\x00\x00\x00\x00\x00\x00\x01\x00\x00\x00\x00\x00\x00\x00\x00\x00\x00\x00\x00\x00\x00\x00\x00\x00\x00\x00\x00\x00\x00\x00\x00\x00\x00\x00\x00\x00\x00\x00\x00\x00\x00\x00\x00\x00\x00\x00\x00\x00\x00\x00\x00\x00\x00\x00\x00\x00\x00\x00\x00\x00\x00\x00\x01\x01\x01\x01\x01\x01\x01\x01\x01\x01\x01\x01\x00\x00\x00\x00\x00\x00\x00\x00\x00\x00\x00\x01\x01\x01\x01\x01\x01\x01\x01\x01\x01\x01\x01\x01\x01\x01\x01\x01'
p72
tp73
bag19
(g20
(I0
tp74
g22
tp75
Rp76
(I1
(I2
I98
tp77
g29
I00
(lp78
S'bulk_richardson_number'
p79
aS'bulk_richardson_num_denominator_m2_s02'
p80
aS'bulk_richardson_num_shear_m_s01'
p81
aS'buoyancy_column_min_kelvins'
p82
aS'cap_strength_kelvins'
p83
aS'cape_j_kg01'
p84
aS'cape_0to3km_agl_j_kg01'
p85
aS'cape_0to6km_agl_j_kg01'
p86
aS'cape_surface_to_freezing_level_j_kg01'
p87
aS'cin_j_kg01'
p88
aS'convective_temperature_kelvins'
p89
aS'critical_angle_deg'
p90
aS'cross_totals_kelvins'
p91
aS'derecho_composite_param'
p92
aS'downdraft_cape_j_kg01'
p93
aS'effective_layer_bottom_metres'
p94
aS'effective_layer_depth_metres'
p95
aS'effective_layer_top_metres'
p96
aS'ehi_0to1km_agl_j_kg01'
p97
aS'ehi_0to3km_agl_j_kg01'
p98
aS'ehi_effective_layer_left_mover_j_kg01'
p99
aS'ehi_effective_layer_right_mover_j_kg01'
p100
aS'enhanced_stretching_potential'
p101
aS'equilibrium_level_m_agl'
p102
aS'fosberg_fire_weather_index'
p103
aS'height_0celsius_m_agl'
p104
aS'height_m10celsius_m_agl'
p105
aS'height_m20celsius_m_agl'
p106
aS'height_m30celsius_m_agl'
p107
aS'k_index_kelvins'
p108
aS'lapse_rate_0to3km_agl_k_m01'
p109
aS'lapse_rate_3to6km_agl_k_m01'
p110
aS'lapse_rate_700to500mb_k_m01'
p111
aS'lapse_rate_850to500mb_k_m01'
p112
aS'large_hail_param'
p113
aS'level_of_free_convection_m_agl'
p114
aS'lifted_index_column_max'
p115
aS'lifted_index_surface_to_300mb'
p116
aS'lifted_index_surface_to_500mb'
p117
aS'lifting_condensation_level_m_agl'
p118
aS'max_parcel_level_m_agl'
p119
aS'mcs_maintenance_probability'
p120
aS'microburst_composite_param'
p121
aS'mixing_ratio_0to100mb_agl'
p122
aS'pbl_depth_metres'
p123
aS'precipitable_water_mm'
p124
aS'relative_humidity_0to1km_agl'
p125
aS'relative_humidity_0to150mb_agl'
p126
aS'relative_humidity_150to350mb_agl'
p127
aS'relative_humidity_pbl'
p128
aS'relative_humidity_surface'
p129
aS'sherb_param'
p130
aS'significant_hail_param'
p131
aS'significant_severe_param'
p132
aS'srh_0to1km_agl_j_kg01'
p133
aS'srh_0to3km_agl_j_kg01'
p134
aS'srh_left_mover_j_kg01'
p135
aS'srh_right_mover_j_kg01'
p136
aS'srw_0to1km_agl_m_s01'
p137
aS'srw_0to2km_agl_m_s01'
p138
aS'srw_0to3km_agl_m_s01'
p139
aS'srw_4to5km_agl_m_s01'
p140
aS'srw_4to6km_agl_m_s01'
p141
aS'srw_0to6km_agl_m_s01'
p142
aS'srw_0to8km_agl_m_s01'
p143
aS'srw_9to11km_agl_m_s01'
p144
aS'srw_effective_bulk_layer_m_s01'
p145
aS'srw_effective_layer_m_s01'
p146
aS'srw_lcl_to_el_m_s01'
p147
aS'storm_velocity_m_s01'
p148
aS'stp_effective_layer'
p149
aS'stp_fixed_layer'
p150
aS'supercell_composite_param_left_mover'
p151
aS'supercell_composite_param_right_mover'
p152
aS'sweat_index'
p153
aS'theta_e_difference_kelvins'
p154
aS'theta_e_index_kelvins'
p155
aS'total_totals_kelvins'
p156
aS'updraft_tilt_deg'
p157
aS'vertical_totals_kelvins'
p158
aS'wind_damage_param'
p159
aS'wind_difference_ebl_m_s01'
p160
aS'wind_max_pbl_m_s01'
p161
aS'wind_mean_0to1km_agl_m_s01'
p162
aS'wind_mean_0to3km_agl_m_s01'
p163
aS'wind_mean_0to6km_agl_m_s01'
p164
aS'wind_mean_0to8km_agl_m_s01'
p165
aS'wind_mean_ebl_m_s01'
p166
aS'wind_mean_effective_layer_m_s01'
p167
aS'wind_mean_lcl_to_el_m_s01'
p168
aS'wind_mean_pbl_m_s01'
p169
aS'wind_shear_0to1km_agl_m_s01'
p170
aS'wind_shear_0to3km_agl_m_s01'
p171
aS'wind_shear_0to6km_agl_m_s01'
p172
aS'wind_shear_0to8km_agl_m_s01'
p173
aS'wind_shear_0to9km_agl_m_s01'
p174
aS'wind_shear_effective_layer_m_s01'
p175
aS'wind_shear_lcl_to_el_m_s01'
p176
aS'brn'
p177
aS'brndenom'
p178
aS'brnshear'
p179
aS'bmin'
p180
aS'cap'
p181
aS'bplus'
p182
aS'b3km'
p183
aS'b6km'
p184
aS'bfzl'
p185
aS'bminus'
p186
aS'convT'
p187
aS'critical_angle'
p188
aS'x_totals'
p189
aS'dcp'
p190
aS'dcape'
p191
aS'ebotm'
p192
aS'edepthm'
p193
aS'etopm'
p194
aS'ehi1km'
p195
aS'ehi3km'
p196
aS'left_ehi'
p197
aS'right_ehi'
p198
aS'esp'
p199
aS'elhght'
p200
aS'fosberg'
p201
aS'hght0c'
p202
aS'hghtm10c'
p203
aS'hghtm20c'
p204
aS'hghtm30c'
p205
aS'k_idx'
p206
aS'lapserate_3km'
p207
aS'lapserate_3_6km'
p208
aS'lapserate_700_500'
p209
aS'lapserate_850_500'
p210
aS'lhp'
p211
aS'lfchght'
p212
aS'limax'
p213
aS'li3'
p214
aS'li5'
p215
aS'lclhght'
p216
aS'mplhght'
p217
aS'mmp'
p218
aS'mburst'
p219
aS'mean_mixr'
p220
aS'pbl_depth'
p221
aS'pwat'
p222
aS'rh01km'
p223
aS'low_rh'
p224
aS'mid_rh'
p225
aS'pblrh'
p226
aS'sfc_rh'
p227
aS'sherb'
p228
aS'ship'
p229
aS'sig_severe'
p230
aS'srh1km'
p231
aS'srh3km'
p232
aS'left_esrh'
p233
aS'right_esrh'
p234
aS'srw_1km'
p235
aS'srw_0_2km'
p236
aS'srw_3km'
p237
aS'srw_4_5km'
p238
aS'srw_4_6km'
p239
aS'srw_6km'
p240
aS'srw_8km'
p241
aS'srw_9_11km'
p242
aS'srw_ebw'
p243
aS'srw_eff'
p244
aS'srw_lcl_el'
p245
aS'storm_velocity_m_s01'
p246
aS'stp_cin'
p247
aS'stp_fixed'
p248
aS'left_scp'
p249
aS'right_scp'
p250
aS'sweat'
p251
aS'thetae_diff'
p252
aS'tei'
p253
aS'totals_totals'
p254
aS'updraft_tilt'
p255
aS'v_totals'
p256
aS'wndg'
p257
aS'ebwd'
p258
aS'pblmaxwind'
p259
aS'mean_1km'
p260
aS'mean_3km'
p261
aS'mean_6km'
p262
aS'mean_8km'
p263
aS'mean_ebw'
p264
aS'mean_eff'
p265
aS'mean_lcl_el'
p266
aS'meanwindpbl'
p267
aS'sfc_1km_shear'
p268
aS'sfc_3km_shear'
p269
aS'sfc_6km_shear'
p270
aS'sfc_8km_shear'
p271
aS'sfc_9km_shear'
p272
aS'eff_shear'
p273
aS'lcl_el_shear'
p274
atp275
bag19
(g20
(I0
tp276
g22
tp277
Rp278
(I1
(I1
I98
tp279
g29
I00
(lp280
g19
(g20
(I0
tp281
g22
tp282
Rp283
(I1
(I1
tp284
g58
I00
S'\x1cB\xa5"\x99f`@'
p285
tp286
bag19
(g20
(I0
tp287
g22
tp288
Rp289
(I1
(I1
tp290
g58
I00
S'R\xb9\xaf\x10s\x17u@'
p291
tp292
bag19
(g20
(I0
tp293
g22
tp294
Rp295
(I1
(I2
tp296
g58
I00
S'@7\x0fP/J6@\xe6\x12\xa5\xd0q\x9b\x17@'
p297
tp298
bag19
(g20
(I0
tp299
g22
tp300
Rp301
(I1
(I1
tp302
g58
I00
S'\x00\x00\x00\x00\x00\x00\x00\x00'
p303
tp304
bag19
(g20
(I0
tp305
g22
tp306
Rp307
(I1
(I1
tp308
g58
I00
S'p4p\x93\xe9(9@'
p309
tp310
bag19
(g20
(I0
tp311
g22
tp312
Rp313
(I1
(I1
tp314
g58
I00
S'a\x06\xf2\x0br\xe1\xa0@'
p315
tp316
bag19
(g20
(I0
tp317
g22
tp318
Rp319
(I1
(I1
tp320
g58
I00
S'\x7f\xbd\x13\xd7\xab_r@'
p321
tp322
bag19
(g20
(I0
tp323
g22
tp324
Rp325
(I1
(I1
tp326
g58
I00
S'\xce\xfb[\xd2\x03\xdc\x8e@'
p327
tp328
bag19
(g20
(I0
tp329
g22
tp330
Rp331
(I1
(I1
tp332
g58
I00
S'\xd6\xe4"k\x90[y@'
p333
tp334
bag19
(g20
(I0
tp335
g22
tp336
Rp337
(I1
(I1
tp338
g58
I00
S'\x00\x00\x00\x00\x00\x00\x00\x00'
p339
tp340
bag19
(g20
(I0
tp341
g22
tp342
Rp343
(I1
(I1
tp344
g58
I00
S'33333\xf3r@'
p345
tp346
bag19
(g20
(I0
tp347
g22
tp348
Rp349
(I1
(I1
tp350
g58
I00
S'\xee}\x95c\x04*f@'
p351
tp352
bag19
(g20
(I0
tp353
g22
tp354
Rp355
(I1
(I1
tp356
g58
I00
S'\xe8FZI\xc4\xc4;@'
p357
tp358
bag19
(g20
(I0
tp359
g22
tp360
Rp361
(I1
(I1
tp362
g58
I00
S'\xed+\x85\xab \x9e\n@'
p363
tp364
bag19
(g20
(I0
tp365
g22
tp366
Rp367
(I1
(I1
tp368
g58
I00
S'LD\x15r/\xed\x8a@'
p369
tp370
bag19
(g20
(I0
tp371
g22
tp372
Rp373
(I1
(I1
tp374
g58
I00
S'\xda\xf9~j\xbce\xa4@'
p375
tp376
bag19
(g20
(I0
tp377
g22
tp378
Rp379
(I1
(I1
tp380
g58
I00
S'Zd;\xdfO\xa8\xa7@'
p381
tp382
bag19
(g20
(I0
tp383
g22
tp384
Rp385
(I1
(I1
tp386
g58
I00
S'-\xdd$\x06\xa1\xa6\xb0@'
p387
tp388
bag19
(g20
(I0
tp389
g22
tp390
Rp391
(I1
(I1
tp392
g58
I00
S'\xc2G\xf8\x1b\xd2\x07\xf2?'
p393
tp394
bag19
(g20
(I0
tp395
g22
tp396
Rp397
(I1
(I1
tp398
g58
I00
S'\x02\x98\xaaW\xde%\x01@'
p399
tp400
bag19
(g20
(I0
tp401
g22
tp402
Rp403
(I1
(I1
tp404
g58
I00
S'\xae\x82\x19\xb5\x94\x00\xe8?'
p405
tp406
bag19
(g20
(I0
tp407
g22
tp408
Rp409
(I1
(I1
tp410
g58
I00
S'0\x02N\xdb\x15\xf5\x02@'
p411
tp412
bag19
(g20
(I0
tp413
g22
tp414
Rp415
(I1
(I1
tp416
g58
I00
S'\xe7\x7f\xaf\x07\xe6m\xee?'
p417
tp418
bag19
(g20
(I0
tp419
g22
tp420
Rp421
(I1
(I1
tp422
g58
I00
S'\xc8\x07\x19r\xaa4\xc8@'
p423
tp424
bag19
(g20
(I0
tp425
g22
tp426
Rp427
(I1
(I1
tp428
g58
I00
S'~\xef-\x02\xd1\xa4@@'
p429
tp430
bag19
(g20
(I0
tp431
g22
tp432
Rp433
(I1
(I1
tp434
g58
I00
S'\xa5Vj\xa5\xd6\xc1\xb0@'
p435
tp436
bag19
(g20
(I0
tp437
g22
tp438
Rp439
(I1
(I1
tp440
g58
I00
S'\xe8\xcfr\xfel\x0f\xb7@'
p441
tp442
bag19
(g20
(I0
tp443
g22
tp444
Rp445
(I1
(I1
tp446
g58
I00
S'aOS\x0e\x19\t\xbd@'
p447
tp448
bag19
(g20
(I0
tp449
g22
tp450
Rp451
(I1
(I1
tp452
g58
I00
S'\xca\xbe:\xa9\x9a_\xc1@'
p453
tp454
bag19
(g20
(I0
tp455
g22
tp456
Rp457
(I1
(I1
tp458
g58
I00
S'c\x18\xcb=\xa0\x02C@'
p459
tp460
bag19
(g20
(I0
tp461
g22
tp462
Rp463
(I1
(I1
tp464
g58
I00
S'\x9d\x8cmMjG\x80?'
p465
tp466
bag19
(g20
(I0
tp467
g22
tp468
Rp469
(I1
(I1
tp470
g58
I00
S'\xaf\xb9\x05\xd8QT\x80?'
p471
tp472
bag19
(g20
(I0
tp473
g22
tp474
Rp475
(I1
(I1
tp476
g58
I00
S'yGb\xc0%E\x80?'
p477
tp478
bag19
(g20
(I0
tp479
g22
tp480
Rp481
(I1
(I1
tp482
g58
I00
S'\x8c\xd3\xef7\x1c\xe8~?'
p483
tp484
bag19
(g20
(I0
tp485
g22
tp486
Rp487
(I1
(I1
tp488
g58
I00
S'\x89\xa0\xbad\x13$\x1e@'
p489
tp490
bag19
(g20
(I0
tp491
g22
tp492
Rp493
(I1
(I1
tp494
g58
I00
S'\x00\x00\x00\x00\x80\x04\xbb@'
p495
tp496
bag19
(g20
(I0
tp497
g22
tp498
Rp499
(I1
(I1
tp500
g58
I00
S'`\x06\xd60\xb2\xff)@'
p501
tp502
bag19
(g20
(I0
tp503
g22
tp504
Rp505
(I1
(I1
tp506
g58
I00
S'\x80q\x1a:\xba\x8c7@'
p507
tp508
bag19
(g20
(I0
tp509
g22
tp510
Rp511
(I1
(I1
tp512
g58
I00
S'\x1c\xea>\x05\x8c\x08(@'
p513
tp514
bag19
(g20
(I0
tp515
g22
tp516
Rp517
(I1
(I1
tp518
g58
I00
S'_#\xbc\xed\xe2W\xbb@'
p519
tp520
bag19
(g20
(I0
tp521
g22
tp522
Rp523
(I1
(I1
tp524
g58
I00
S'\xfd0\xc0\xb0\x8f\x18\xce@'
p525
tp526
bag19
(g20
(I0
tp527
g22
tp528
Rp529
(I1
(I1
tp530
g58
I00
S'{\x14\xaeG\xe1z\x84?'
p531
tp532
bag19
(g20
(I0
tp533
g22
tp534
Rp535
(I1
(I1
tp536
g58
I00
S'\x00\x00\x00\x00\x00\x00\x00\x00'
p537
tp538
bag19
(g20
(I0
tp539
g22
tp540
Rp541
(I1
(I1
tp542
g58
I00
S'\xa4\xbad\xf6\n\xf3\x8d?'
p543
tp544
bag19
(g20
(I0
tp545
g22
tp546
Rp547
(I1
(I1
tp548
g58
I00
S'\x00\x00\x00\x00\x00p\x95@'
p549
tp550
bag19
(g20
(I0
tp551
g22
tp552
Rp553
(I1
(I1
tp554
g58
I00
S'e$XB\xb6<G@'
p555
tp556
bag19
(g20
(I0
tp557
g22
tp558
Rp559
(I1
(I1
tp560
g58
I00
S'\xa8#`\xe8F\xed\xef?'
p561
tp562
bag19
(g20
(I0
tp563
g22
tp564
Rp565
(I1
(I1
tp566
g58
I00
S'\xf3 M\xd1\xd5\xeb\xef?'
p567
tp568
bag19
(g20
(I0
tp569
g22
tp570
Rp571
(I1
(I1
tp572
g58
I00
S'\x97\xec(z\x93\xff\xef?'
p573
tp574
bag19
(g20
(I0
tp575
g22
tp576
Rp577
(I1
(I1
tp578
g58
I00
S'\xa0B\x89}<\xeb\xef?'
p579
tp580
bag19
(g20
(I0
tp581
g22
tp582
Rp583
(I1
(I1
tp584
g58
I00
S'\x00\x00\x00\x00\x00\x00\xf0?'
p585
tp586
bag19
(g20
(I0
tp587
g22
tp588
Rp589
(I1
(I1
tp590
g58
I00
S'\xe0*`Sc\xb9\xfc?'
p591
tp592
bag19
(g20
(I0
tp593
g22
tp594
Rp595
(I1
(I1
tp596
g58
I00
S'\x00\xba\x8aXp\xf5\xf3?'
p597
tp598
bag19
(g20
(I0
tp599
g22
tp600
Rp601
(I1
(I1
tp602
g58
I00
S'V\x08\xc2\x06x\xff\xdd@'
p603
tp604
bag19
(g20
(I0
tp605
g22
tp606
Rp607
(I1
(I1
tp608
g58
I00
S'j\x9e3K-\xf8{@'
p609
tp610
bag19
(g20
(I0
tp611
g22
tp612
Rp613
(I1
(I1
tp614
g58
I00
S'\x932+u\x00S\x8f@'
p615
tp616
bag19
(g20
(I0
tp617
g22
tp618
Rp619
(I1
(I1
tp620
g58
I00
S'm\x1a\xa9P\xf1\x95i@'
p621
tp622
bag19
(g20
(I0
tp623
g22
tp624
Rp625
(I1
(I1
tp626
g58
I00
S'\xdf(w\xc6\x9e\xa4t@'
p627
tp628
bag19
(g20
(I0
tp629
g22
tp630
Rp631
(I1
(I2
tp632
g58
I00
S'\x82\xe7\x02\x92\x8c\xea)@J^\x9eD\x9b\xc9&@'
p633
tp634
bag19
(g20
(I0
tp635
g22
tp636
Rp637
(I1
(I2
tp638
g58
I00
S'\xa8\xbd\xc5,\x82\xda-@;?\x97\xf2\x08]!@'
p639
tp640
bag19
(g20
(I0
tp641
g22
tp642
Rp643
(I1
(I2
tp644
g58
I00
S'L\x19Z\rt\xe0.@r\xc1[g\x85F\x19@'
p645
tp646
bag19
(g20
(I0
tp647
g22
tp648
Rp649
(I1
(I2
tp650
g58
I00
S'\xf8\xd4p_C\xa65@\xba!5\xa6f\x90\x17@'
p651
tp652
bag19
(g20
(I0
tp653
g22
tp654
Rp655
(I1
(I2
tp656
g58
I00
S'\xfa\xb2K\xb7V\x926@\x00\x94\x1e\x9a\x8a\x06\x1a@'
p657
tp658
bag19
(g20
(I0
tp659
g22
tp660
Rp661
(I1
(I2
tp662
g58
I00
S'\x87\xd0\xb3P:\xe1.@\x91\xeb\x11v$\xd3\x11@'
p663
tp664
bag19
(g20
(I0
tp665
g22
tp666
Rp667
(I1
(I2
tp668
g58
I00
S'#\x91\xf9@\x95\xec/@\x9e\x8a:\xfd;\x93\x11@'
p669
tp670
bag19
(g20
(I0
tp671
g22
tp672
Rp673
(I1
(I2
tp674
g58
I00
S'\x07\x0c\xd8\xab\xdbrG@\xdc\rgo\x94\t#@'
p675
tp676
bag19
(g20
(I0
tp677
g22
tp678
Rp679
(I1
(I2
tp680
g58
I00
S'Fk\xfc\xb3<\t2@\xef\x15\x1f\xd0!-\xf7?'
p681
tp682
bag19
(g20
(I0
tp683
g22
tp684
Rp685
(I1
(I2
tp686
g58
I00
S'8\xe6\x1d6/\xd22@\xa6t(\x96m\xc9\x1c@'
p687
tp688
bag19
(g20
(I0
tp689
g22
tp690
Rp691
(I1
(I2
tp692
g58
I00
S'd\xf0\xd8Y\xec\xc13@I\x0bp\xa0>\xf4\x1d@'
p693
tp694
bag19
(g20
(I0
tp695
g22
tp696
Rp697
(I1
(I2
tp698
g58
I00
S'\x1a\xe1\xedA\x08\xcc2@\x13`X\xfe|\x1f1@'
p699
tp700
bag19
(g20
(I0
tp701
g22
tp702
Rp703
(I1
(I1
tp704
g58
I00
S'PmS\xe8\xd2f\xe5?'
p705
tp706
bag19
(g20
(I0
tp707
g22
tp708
Rp709
(I1
(I1
tp710
g58
I00
S'\xc9\x19@*f\xe8\xdf?'
p711
tp712
bag19
(g20
(I0
tp713
g22
tp714
Rp715
(I1
(I1
tp716
g58
I00
S'f\r\xba\xc8\xbe\xd5\x01@'
p717
tp718
bag19
(g20
(I0
tp719
g22
tp720
Rp721
(I1
(I1
tp722
g58
I00
S'p\x162\x8f\x99\x9f\x1d@'
p723
tp724
bag19
(g20
(I0
tp725
g22
tp726
Rp727
(I1
(I1
tp728
g58
I00
S'\xe4\x98R\rB\xa3|@'
p729
tp730
bag19
(g20
(I0
tp731
g22
tp732
Rp733
(I1
(I1
tp734
g58
I00
S"0;`p'\t;@"
p735
tp736
bag19
(g20
(I0
tp737
g22
tp738
Rp739
(I1
(I1
tp740
g58
I00
S'(\x9eH{B\x1dE@'
p741
tp742
bag19
(g20
(I0
tp743
g22
tp744
Rp745
(I1
(I1
tp746
g58
I00
S'(/\xf1\x16e8L@'
p747
tp748
bag19
(g20
(I0
tp749
g22
tp750
Rp751
(I1
(I1
tp752
g58
I00
S'2F\x92}\x93$T@'
p753
tp754
bag19
(g20
(I0
tp755
g22
tp756
Rp757
(I1
(I1
tp758
g58
I00
S'\x00\x00\x00\x00\x00\x00?@'
p759
tp760
bag19
(g20
(I0
tp761
g22
tp762
Rp763
(I1
(I1
tp764
g58
I00
S'q\x080\xcdK\x0c\xd1?'
p765
tp766
bag19
(g20
(I0
tp767
g22
tp768
Rp769
(I1
(I2
tp770
g58
I00
S'p\xf1\x8d\x7f6\xb13@E\x19 \xf5\x19"\xf9?'
p771
tp772
bag19
(g20
(I0
tp773
g22
tp774
Rp775
(I1
(I2
tp776
g58
I00
S'\xce\xd8\\[\xaa\x914@^`\xe4V\x96\xed1@'
p777
tp778
bag19
(g20
(I0
tp779
g22
tp780
Rp781
(I1
(I2
tp782
g58
I00
S'6\x00\xd8bQ\x984@\x1a\xd8\xe7\xa4\xc4*2@'
p783
tp784
bag19
(g20
(I0
tp785
g22
tp786
Rp787
(I1
(I2
tp788
g58
I00
S'X,\xff\xde\xe2\x0c7@\xd2L\xe5\x86\xc9\xfe&@'
p789
tp790
bag19
(g20
(I0
tp791
g22
tp792
Rp793
(I1
(I2
tp794
g58
I00
S'\xbc\xdd\xed(\xc4A6@\xa6z\xc9\xf0iE\x1c@'
p795
tp796
bag19
(g20
(I0
tp797
g22
tp798
Rp799
(I1
(I2
tp800
g58
I00
S']^\xddW/j6@\xb4I\xe1\xa5\xde\xe9\x18@'
p801
tp802
bag19
(g20
(I0
tp803
g22
tp804
Rp805
(I1
(I2
tp806
g58
I00
S'\xd4dj\xfb\xbc\xa59@\xf4\xc5\x06\x95y\x92\x17@'
p807
tp808
bag19
(g20
(I0
tp809
g22
tp810
Rp811
(I1
(I2
tp812
g58
I00
S'\xe7\xdf\x98\xfa2\xb3;@\xaa\x90\x1e\xfb\xc8\xc9&@'
p813
tp814
bag19
(g20
(I0
tp815
g22
tp816
Rp817
(I1
(I2
tp818
g58
I00
S'P\x8a\xb5Z8\xb59@ Tc\xdf*\xd3 @'
p819
tp820
bag19
(g20
(I0
tp821
g22
tp822
Rp823
(I1
(I2
tp824
g58
I00
S'X@\x98h\x93\xb7.@\x97\xe72d>\x04.@'
p825
tp826
bag19
(g20
(I0
tp827
g22
tp828
Rp829
(I1
(I2
tp830
g58
I00
S'^`\x0b\xeaN\xc09@\xaeAH\xf4\x9ez-@'
p831
tp832
bag19
(g20
(I0
tp833
g22
tp834
Rp835
(I1
(I2
tp836
g58
I00
S'$HC\x83[\xf1=@7\x06\x01\xe6[\x92\x17@'
p837
tp838
bag19
(g20
(I0
tp839
g22
tp840
Rp841
(I1
(I2
tp842
g58
I00
S'\x7f\x90\xf8\xc9\xc7\xd0A@\xde\x19/\xdbd\xd3$@'
p843
tp844
bag19
(g20
(I0
tp845
g22
tp846
Rp847
(I1
(I2
tp848
g58
I00
S'\x12\x97-\x94\x1b\x1bG@\xe0\xd2\x95d\x16\xe2,@'
p849
tp850
bag19
(g20
(I0
tp851
g22
tp852
Rp853
(I1
(I2
tp854
g58
I00
S'\x10\xdaJ]\x00\x81J@\xb3\x1b\x1a\xeb \xaf,@'
p855
tp856
bag19
(g20
(I0
tp857
g22
tp858
Rp859
(I1
(I2
tp860
g58
I00
S'\x93.:\x88]e1@\xdc\xdcP\x11\x90\x02\x15@'
p861
tp862
bag19
(g20
(I0
tp863
g22
tp864
Rp865
(I1
(I2
tp866
g58
I00
S'\xd2(\xccQo~9@\x87%\xf7\xc6&#\x00@'
p867
tp868
batp869
bag19
(g20
(I0
tp870
g22
tp871
Rp872
(I1
(I1
I98
tp873
g29
I00
(lp874
g19
(g20
(I0
tp875
g22
tp876
Rp877
(I1
(I1
tp878
g58
I00
S'\x00\x00\x00\x00\x00\x00\x00\x00'
p879
tp880
bag19
(g20
(I0
tp881
g22
tp882
Rp883
(I1
(I1
tp884
g58
I00
S'w\xb0\x02\xfb\x85\xad\xf8?'
p885
tp886
bag19
(g20
(I0
tp887
g22
tp888
Rp889
(I1
(I2
tp890
g58
I00
S'>\xa21"u\xd8*\xc0\xac\x15\xd4\xc2\x87q5\xc0'
p891
tp892
bag19
(g20
(I0
tp893
g22
tp894
Rp895
(I1
(I1
tp896
g58
I00
S'0 \x1b@X\xa7%\xc0'
p897
tp898
bag19
(g20
(I0
tp899
g22
tp900
Rp901
(I1
(I1
tp902
g58
I00
S'\x00\x00\x00\x00\x00\x00\x00\x00'
p903
tp904
bag19
(g20
(I0
tp905
g22
tp906
Rp907
(I1
(I1
tp908
g58
I00
S'\x00\x00\x00\x00\x00\x00\x00\x00'
p909
tp910
bag19
(g20
(I0
tp911
g22
tp912
Rp913
(I1
(I1
tp914
g58
I00
S'\x00\x00\x00\x00\x00\x00\x00\x00'
p915
tp916
bag19
(g20
(I0
tp917
g22
tp918
Rp919
(I1
(I1
tp920
g58
I00
S'\x00\x00\x00\x00\x00\x00\x00\x00'
p921
tp922
bag19
(g20
(I0
tp923
g22
tp924
Rp925
(I1
(I1
tp926
g58
I00
S'\x00\x00\x00\x00\x00\x00\x00\x00'
p927
tp928
bag19
(g20
(I0
tp929
g22
tp930
Rp931
(I1
(I1
tp932
g58
I00
S'(m\xde<\xa5\re\xc0'
p933
tp934
bag19
(g20
(I0
tp935
g22
tp936
Rp937
(I1
(I1
tp938
g58
I00
S'\x00\x00\x00\x00\x00\xb0p@'
p939
tp940
bag19
(g20
(I0
tp941
g22
tp942
Rp943
(I1
(I1
tp944
g58
I00
S'\xf6!j/\xa5}\xf5?'
p945
tp946
bag19
(g20
(I0
tp947
g22
tp948
Rp949
(I1
(I1
tp950
g58
I00
S'\xa4Q\xd3*\x91L!\xc0'
p951
tp952
bag19
(g20
(I0
tp953
g22
tp954
Rp955
(I1
(I1
tp956
g58
I00
S'\xaf&q\xc3\x828\x8e\xbf'
p957
tp958
bag19
(g20
(I0
tp959
g22
tp960
Rp961
(I1
(I1
tp962
g58
I00
S'\xae\xff\x8a\xb3\x02\xfaB\xc0'
p963
tp964
bag19
(g20
(I0
tp965
g22
tp966
Rp967
(I1
(I1
tp968
g58
I00
S'\x00\x00\x00\x00\x00\x00\x00\x00'
p969
tp970
bag19
(g20
(I0
tp971
g22
tp972
Rp973
(I1
(I1
tp974
g58
I00
S'\x00\x00\x00\x00\x00\x00\x00\x00'
p975
tp976
bag19
(g20
(I0
tp977
g22
tp978
Rp979
(I1
(I1
tp980
g58
I00
S'\x00\x00\x00\x00\x00\x00\x00\x00'
p981
tp982
bag19
(g20
(I0
tp983
g22
tp984
Rp985
(I1
(I1
tp986
g58
I00
S'\xe4\xdb \xb3\x8aQ\xf3\xbf'
p987
tp988
bag19
(g20
(I0
tp989
g22
tp990
Rp991
(I1
(I1
tp992
g58
I00
S'\xe0\xdb\xdd\xc5\t\x01\x00\xc0'
p993
tp994
bag19
(g20
(I0
tp995
g22
tp996
Rp997
(I1
(I1
tp998
g58
I00
S'\xbb\x18Q\xe7J=\xea\xbf'
p999
tp1000
bag19
(g20
(I0
tp1001
g22
tp1002
Rp1003
(I1
(I1
tp1004
g58
I00
S'\xcc;\xf1\x1b\xdf\x0c\xa6\xbf'
p1005
tp1006
bag19
(g20
(I0
tp1007
g22
tp1008
Rp1009
(I1
(I1
tp1010
g58
I00
S'\x00\x00\x00\x00\x00\x00\x00\x00'
p1011
tp1012
bag19
(g20
(I0
tp1013
g22
tp1014
Rp1015
(I1
(I1
tp1016
g58
I00
S'|\xfdj&\xa2:\x92@'
p1017
tp1018
bag19
(g20
(I0
tp1019
g22
tp1020
Rp1021
(I1
(I1
tp1022
g58
I00
S'\x11\x10,8uG\xd8?'
p1023
tp1024
bag19
(g20
(I0
tp1025
g22
tp1026
Rp1027
(I1
(I1
tp1028
g58
I00
S'S=\n\xd7\xa3\xf5m@'
p1029
tp1030
bag19
(g20
(I0
tp1031
g22
tp1032
Rp1033
(I1
(I1
tp1034
g58
I00
S'i333s\x00\x89@'
p1035
tp1036
bag19
(g20
(I0
tp1037
g22
tp1038
Rp1039
(I1
(I1
tp1040
g58
I00
S'\xf8\xbf6\xf5\xd4\xfd\xa5@'
p1041
tp1042
bag19
(g20
(I0
tp1043
g22
tp1044
Rp1045
(I1
(I1
tp1046
g58
I00
S'8333;2\xb2@'
p1047
tp1048
bag19
(g20
(I0
tp1049
g22
tp1050
Rp1051
(I1
(I1
tp1052
g58
I00
S'\xb8\xd5c\xceWoA\xc0'
p1053
tp1054
bag19
(g20
(I0
tp1055
g22
tp1056
Rp1057
(I1
(I1
tp1058
g58
I00
S'b\xb0\x84\x7f\xca"B\xbf'
p1059
tp1060
bag19
(g20
(I0
tp1061
g22
tp1062
Rp1063
(I1
(I1
tp1064
g58
I00
S'\x82}B\xe9%Dr?'
p1065
tp1066
bag19
(g20
(I0
tp1067
g22
tp1068
Rp1069
(I1
(I1
tp1070
g58
I00
S'\xbb$B07\x87p?'
p1071
tp1072
bag19
(g20
(I0
tp1073
g22
tp1074
Rp1075
(I1
(I1
tp1076
g58
I00
S'\xd2\xab\xb4\x99\xc1\\i?'
p1077
tp1078
bag19
(g20
(I0
tp1079
g22
tp1080
Rp1081
(I1
(I1
tp1082
g58
I00
S'\x00\x00\x00\x00\x00\x00\x00\x00'
p1083
tp1084
bag19
(g20
(I0
tp1085
g22
tp1086
Rp1087
(I1
(I1
tp1088
g58
I00
S'\xd0\x90\xd6Ge\x95E@'
p1089
tp1090
bag19
(g20
(I0
tp1091
g22
tp1092
Rp1093
(I1
(I1
tp1094
g58
I00
S'\xb8X@)\xddm\x1f\xc0'
p1095
tp1096
bag19
(g20
(I0
tp1097
g22
tp1098
Rp1099
(I1
(I1
tp1100
g58
I00
S'\xc0 R\xbd\x87\x8b\x16\xc0'
p1101
tp1102
bag19
(g20
(I0
tp1103
g22
tp1104
Rp1105
(I1
(I1
tp1106
g58
I00
S'@\xd6$u\x16S\x1c\xc0'
p1107
tp1108
bag19
(g20
(I0
tp1109
g22
tp1110
Rp1111
(I1
(I1
tp1112
g58
I00
S'\xa6\xd6\x9a\x18\xa6%C@'
p1113
tp1114
bag19
(g20
(I0
tp1115
g22
tp1116
Rp1117
(I1
(I1
tp1118
g58
I00
S'W\xd8\x80H*\xc1\x8a@'
p1119
tp1120
bag19
(g20
(I0
tp1121
g22
tp1122
Rp1123
(I1
(I1
tp1124
g58
I00
S'\x00\x00\x00\x00\x00\x00\x00\x00'
p1125
tp1126
bag19
(g20
(I0
tp1127
g22
tp1128
Rp1129
(I1
(I1
tp1130
g58
I00
S'\x00\x00\x00\x00\x00\x00\x00\x00'
p1131
tp1132
bag19
(g20
(I0
tp1133
g22
tp1134
Rp1135
(I1
(I1
tp1136
g58
I00
S'\x1c\x84/\xfc\xeb5H?'
p1137
tp1138
bag19
(g20
(I0
tp1139
g22
tp1140
Rp1141
(I1
(I1
tp1142
g58
I00
S'\x00\x00\x00\x00\x00\x00\x1e@'
p1143
tp1144
bag19
(g20
(I0
tp1145
g22
tp1146
Rp1147
(I1
(I1
tp1148
g58
I00
S'\x04\xc7E\x04f\xa4\x02@'
p1149
tp1150
bag19
(g20
(I0
tp1151
g22
tp1152
Rp1153
(I1
(I1
tp1154
g58
I00
S'kq\x85I\x8d\xeb\xc3?'
p1155
tp1156
bag19
(g20
(I0
tp1157
g22
tp1158
Rp1159
(I1
(I1
tp1160
g58
I00
S'\x9f\x85\xe9\xd49_\xc4?'
p1161
tp1162
bag19
(g20
(I0
tp1163
g22
tp1164
Rp1165
(I1
(I1
tp1166
g58
I00
S'\xd1\x9f\x83\xbb\xfc\x89\xb1?'
p1167
tp1168
bag19
(g20
(I0
tp1169
g22
tp1170
Rp1171
(I1
(I1
tp1172
g58
I00
S'\xa9\x98\xf8\xa8\x08\x87\xcb?'
p1173
tp1174
bag19
(g20
(I0
tp1175
g22
tp1176
Rp1177
(I1
(I1
tp1178
g58
I00
S'>cj\xc8U\x08\xd0?'
p1179
tp1180
bag19
(g20
(I0
tp1181
g22
tp1182
Rp1183
(I1
(I1
tp1184
g58
I00
S'\x8cu\xca\xde\x1f\xf0\xae?'
p1185
tp1186
bag19
(g20
(I0
tp1187
g22
tp1188
Rp1189
(I1
(I1
tp1190
g58
I00
S'\x00\x00\x00\x00\x00\x00\x00\x00'
p1191
tp1192
bag19
(g20
(I0
tp1193
g22
tp1194
Rp1195
(I1
(I1
tp1196
g58
I00
S'\x00\x00\x00\x00\x00\x00\x00\x00'
p1197
tp1198
bag19
(g20
(I0
tp1199
g22
tp1200
Rp1201
(I1
(I1
tp1202
g58
I00
S'\x00\x00\x00\x00\x00\x00\x00\x00'
p1203
tp1204
bag19
(g20
(I0
tp1205
g22
tp1206
Rp1207
(I1
(I1
tp1208
g58
I00
S'\x00\x00\x00\x00\x00\x00\x00\x00'
p1209
tp1210
bag19
(g20
(I0
tp1211
g22
tp1212
Rp1213
(I1
(I1
tp1214
g58
I00
S'\x00\x00\x00\x00\x00\x00\x00\x00'
p1215
tp1216
bag19
(g20
(I0
tp1217
g22
tp1218
Rp1219
(I1
(I1
tp1220
g58
I00
S'\x00\x00\x00\x00\x00\x00\x00\x00'
p1221
tp1222
bag19
(g20
(I0
tp1223
g22
tp1224
Rp1225
(I1
(I2
tp1226
g58
I00
S'\xd2\xa3\x8f\xb5\xb6+6\xc0\xd57S\xec\xbd\x135\xc0'
p1227
tp1228
bag19
(g20
(I0
tp1229
g22
tp1230
Rp1231
(I1
(I2
tp1232
g58
I00
S'PzqF\xdcx4\xc0&n\x14\x94Q\xc67\xc0'
p1233
tp1234
bag19
(g20
(I0
tp1235
g22
tp1236
Rp1237
(I1
(I2
tp1238
g58
I00
S'\xb73\x1d\r\xa8^5\xc0H/\xb1]q\x889\xc0'
p1239
tp1240
bag19
(g20
(I0
tp1241
g22
tp1242
Rp1243
(I1
(I2
tp1244
g58
I00
S'\xc0u\xc3\xc3\xe7\xae@\xc0\x94\x82.y\xb9JD\xc0'
p1245
tp1246
bag19
(g20
(I0
tp1247
g22
tp1248
Rp1249
(I1
(I2
tp1250
g58
I00
S"\xbb'O\x19\t\x87A\xc0\xa7\xf0\x1b\x11!\xfdD\xc0"
p1251
tp1252
bag19
(g20
(I0
tp1253
g22
tp1254
Rp1255
(I1
(I2
tp1256
g58
I00
S'\x88\xf1\x18B\x85?8\xc0\xc6dT4\xf0\xa0<\xc0'
p1257
tp1258
bag19
(g20
(I0
tp1259
g22
tp1260
Rp1261
(I1
(I2
tp1262
g58
I00
S'\xa1\x91}Z\x08\xd19\xc0\x14\x1b\x1a/\xa5)>\xc0'
p1263
tp1264
bag19
(g20
(I0
tp1265
g22
tp1266
Rp1267
(I1
(I2
tp1268
g58
I00
S'\xae\xd8\x1d\xa7~\x05K\xc0\x9b\xdcnD#\xd2Q\xc0'
p1269
tp1270
bag19
(g20
(I0
tp1271
g22
tp1272
Rp1273
(I1
(I2
tp1274
g58
I00
S'x\xf59\xb4*q3\xc0\x1d(.\x02<\x19A\xc0'
p1275
tp1276
bag19
(g20
(I0
tp1277
g22
tp1278
Rp1279
(I1
(I2
tp1280
g58
I00
S'p\xfe\xf5\x83\x8ce3\xc0\xc9\xa3\xbac\x1ar?\xc0'
p1281
tp1282
bag19
(g20
(I0
tp1283
g22
tp1284
Rp1285
(I1
(I2
tp1286
g58
I00
S'\x7f\xfa\xbd`@\xc2@\xc0\xb5\xc8\x85u`\xa7C\xc0'
p1287
tp1288
bag19
(g20
(I0
tp1289
g22
tp1290
Rp1291
(I1
(I2
tp1292
g58
I00
S'\x08\x8a\x1fc\xee\xda\r\xc0\x88c]\xdcF#\x1b\xc0'
p1293
tp1294
bag19
(g20
(I0
tp1295
g22
tp1296
Rp1297
(I1
(I1
tp1298
g58
I00
S'\x00\x00\x00\x00\x00\x00\x00\x00'
p1299
tp1300
bag19
(g20
(I0
tp1301
g22
tp1302
Rp1303
(I1
(I1
tp1304
g58
I00
S'\xe0Z\xf3\x1b\xd8\xe5\xe1\xbf'
p1305
tp1306
bag19
(g20
(I0
tp1307
g22
tp1308
Rp1309
(I1
(I1
tp1310
g58
I00
S'4\xd1\xa2\xc5\xb1\xab\x03\xc0'
p1311
tp1312
bag19
(g20
(I0
tp1313
g22
tp1314
Rp1315
(I1
(I1
tp1316
g58
I00
S'r\xd4\xb0x\x05\xf7\xad\xbf'
p1317
tp1318
bag19
(g20
(I0
tp1319
g22
tp1320
Rp1321
(I1
(I1
tp1322
g58
I00
S'\xf4X\x0bW\x93\x846\xc0'
p1323
tp1324
bag19
(g20
(I0
tp1325
g22
tp1326
Rp1327
(I1
(I1
tp1328
g58
I00
S'\x00\x00\x00\x00\x00\x00\x00\x00'
p1329
tp1330
bag19
(g20
(I0
tp1331
g22
tp1332
Rp1333
(I1
(I1
tp1334
g58
I00
S'\x80v\x8db\xbd\\\x0e@'
p1335
tp1336
bag19
(g20
(I0
tp1337
g22
tp1338
Rp1339
(I1
(I1
tp1340
g58
I00
S"\x19\xc7\x19\x14t\xf6'@"
p1341
tp1342
bag19
(g20
(I0
tp1343
g22
tp1344
Rp1345
(I1
(I1
tp1346
g58
I00
S'\x0c\x1f\xb0X]\x82E@'
p1347
tp1348
bag19
(g20
(I0
tp1349
g22
tp1350
Rp1351
(I1
(I1
tp1352
g58
I00
S'\xe0\xcc\xcc\xcc\xcc\xcc(@'
p1353
tp1354
bag19
(g20
(I0
tp1355
g22
tp1356
Rp1357
(I1
(I1
tp1358
g58
I00
S'\x00\x00\x00\x00\x00\x00\x00\x00'
p1359
tp1360
bag19
(g20
(I0
tp1361
g22
tp1362
Rp1363
(I1
(I2
tp1364
g58
I00
S"\x04f#\x84\x13\xa5(\xc0\x14'\xc5\xed\x84\x15A\xc0"
p1365
tp1366
bag19
(g20
(I0
tp1367
g22
tp1368
Rp1369
(I1
(I2
tp1370
g58
I00
S'0\xd2\x95\xc0\xd9.0\xc0\x97\x02\xa4Q<\x87.\xc0'
p1371
tp1372
bag19
(g20
(I0
tp1373
g22
tp1374
Rp1375
(I1
(I2
tp1376
g58
I00
S'\xc7;?\xfe\xb4\x19+\xc0\xd8\x01\x94\xa1\xd6\xe5.\xc0'
p1377
tp1378
bag19
(g20
(I0
tp1379
g22
tp1380
Rp1381
(I1
(I2
tp1382
g58
I00
S'\x03S_\xb1\x02\x07(\xc0\x19\xcb\x01\x0cW%3\xc0'
p1383
tp1384
bag19
(g20
(I0
tp1385
g22
tp1386
Rp1387
(I1
(I2
tp1388
g58
I00
S'\xb2\x7f|\xa3f\xce-\xc0\xddP<\x15\x0f\xcf6\xc0'
p1389
tp1390
bag19
(g20
(I0
tp1391
g22
tp1392
Rp1393
(I1
(I2
tp1394
g58
I00
S'\xb0\xe4X\x99\xc9\xab0\xc0\x98\x98!\x9d[\x8a8\xc0'
p1395
tp1396
bag19
(g20
(I0
tp1397
g22
tp1398
Rp1399
(I1
(I2
tp1400
g58
I00
S'a\xaa\x90\xfd\xef\x0b&\xc0\xad\xf2U;B\x818\xc0'
p1401
tp1402
bag19
(g20
(I0
tp1403
g22
tp1404
Rp1405
(I1
(I2
tp1406
g58
I00
S'=&\xb8zL6#\xc0\xac<\xeb\xa5\x94\x046\xc0'
p1407
tp1408
bag19
(g20
(I0
tp1409
g22
tp1410
Rp1411
(I1
(I2
tp1412
g58
I00
S'\xa0@\x13\xbf\x0c\r:\xc0<\xadS\xf8\xf0\x1aA\xc0'
p1413
tp1414
bag19
(g20
(I0
tp1415
g22
tp1416
Rp1417
(I1
(I2
tp1418
g58
I00
S'\xea.m\xf1\xb2b*\xc0\xbc\xd6\xd0\xd3G\xc4&\xc0'
p1419
tp1420
bag19
(g20
(I0
tp1421
g22
tp1422
Rp1423
(I1
(I2
tp1424
g58
I00
S'\x92&\xd0\x9fl\xfa(\xc0lJ(\xf2e\xc13\xc0'
p1425
tp1426
bag19
(g20
(I0
tp1427
g22
tp1428
Rp1429
(I1
(I2
tp1430
g58
I00
S'$\x04\x83\x8cKH4\xc0 \x00\x92\x8a\x9c\xe9>\xc0'
p1431
tp1432
bag19
(g20
(I0
tp1433
g22
tp1434
Rp1435
(I1
(I2
tp1436
g58
I00
S'\x9cp\x11\xbb\x01i@\xc0\x01\x7f\xc8\xc3b\xdfE\xc0'
p1437
tp1438
bag19
(g20
(I0
tp1439
g22
tp1440
Rp1441
(I1
(I2
tp1442
g58
I00
S'\xec\xf7B\xbc\xf1%E\xc0\xff\x9fs*\x8aCK\xc0'
p1443
tp1444
bag19
(g20
(I0
tp1445
g22
tp1446
Rp1447
(I1
(I2
tp1448
g58
I00
S'\x9d\x8e86\xc1\xc6F\xc0\x95\xc0\xc4\xca\\\xd5M\xc0'
p1449
tp1450
bag19
(g20
(I0
tp1451
g22
tp1452
Rp1453
(I1
(I2
tp1454
g58
I00
S'1g\x9a\xc1\x10r$\xc0\x04/o-\x7f\x195\xc0'
p1455
tp1456
bag19
(g20
(I0
tp1457
g22
tp1458
Rp1459
(I1
(I2
tp1460
g58
I00
S'\xf8\x02/L\x8e\x8c+\xc0\xd66\x04\x96K\xd4I\xc0'
p1461
tp1462
batp1463
ba(lp1464
g15
(g16
(dp1465
g18
g19
(g20
(I0
tp1466
g22
tp1467
Rp1468
(I1
(I1
tp1469
g29
I00
(lp1470
g33
atp1471
bsg41
Nstp1472
Rp1473
ag15
(g16
(dp1474
g18
g19
(g20
(I0
tp1475
g22
tp1476
Rp1477
(I1
(I2
tp1478
g29
I00
(lp1479
g34
ag37
atp1480
bsg41
Nstp1481
Rp1482
ag15
(g16
(dp1483
g18
g19
(g20
(I0
tp1484
g22
tp1485
Rp1486
(I1
(I2
tp1487
g29
I00
(lp1488
g35
ag36
atp1489
bsg41
Nstp1490
Rp1491
ag15
(g16
(dp1492
g18
g19
(g20
(I0
tp1493
g22
tp1494
Rp1495
(I1
(I1
tp1496
g29
I00
(lp1497
g38
atp1498
bsg41
Nstp1499
Rp1500
ag15
(g16
(dp1501
g18
g19
(g20
(I0
tp1502
g22
tp1503
Rp1504
(I1
(I1
tp1505
g29
I00
(lp1506
g39
atp1507
bsg41
Nstp1508
Rp1509
a(dp1510
S'0.14.1'
p1511
(dp1512
S'axes'
p1513
g14
sS'blocks'
p1514
(lp1515
(dp1516
S'mgr_locs'
p1517
c__builtin__
slice
p1518
(I0
I1
I1
tp1519
Rp1520
sS'values'
p1521
g54
sa(dp1522
g1517
g1518
(I1
I7
I3
tp1523
Rp1524
sg1521
g65
sa(dp1525
g1517
g1518
(I2
I4
I1
tp1526
Rp1527
sg1521
g76
sa(dp1528
g1517
g1518
(I5
I6
I1
tp1529
Rp1530
sg1521
g278
sa(dp1531
g1517
g1518
(I6
I7
I1
tp1532
Rp1533
sg1521
g872
sasstp1534
bsb.